(dp0
S'show_imports'
p1
I1
sS'prj_name'
p2
S'Service Sharing Facility'
p3
sS'docformat'
p4
S'epytext'
p5
sS'inheritance'
p6
S'grouped'
p7
sS'help'
p8
NsS'modules'
p9
(S'ssf'
p10
S'occi'
p11
tp12
sS'private'
p13
I0
sS'prj_url'
p14
S'http://pyssf.sf.net'
p15
sS'introspect_or_parse'
p16
S'both'
p17
sS'frames'
p18
I1
sS'css'
p19
S'default'
p20
sS'target'
p21
S'docs/build/html/api'
p22
s.