(dp0
S'show_imports'
p1
I1
sS'prj_name'
p2
S'Service Sharing Facility'
p3
sS'docformat'
p4
S'epytext'
p5
sS'inheritance'
p6
S'grouped'
p7
sS'help'
p8
NsS'modules'
p9
(S'pyrest'
p10
S'pylsf'
p11
S'ssf'
p12
S'pydrmaa'
p13
tp14
sS'private'
p15
I0
sS'prj_url'
p16
S'http://pyssf.sf.net'
p17
sS'introspect_or_parse'
p18
S'both'
p19
sS'frames'
p20
I1
sS'css'
p21
S'default'
p22
sS'target'
p23
S'docs/_build/html/api'
p24
s.